target datalayout = "e-m:e-p270:32:32-p271:32:32-p272:64:64-i64:64-i128:128-f80:128-n8:16:32:64-S128"
target triple = "x86_64-pc-linux-gnu"

%struct.ident_t = type { i32, i32, i32, i32, ptr }
%"class.LightGBM::ObjectiveFunction" = type { ptr }
%"class.LightGBM::CrossEntropy" = type <{ %"class.LightGBM::ObjectiveFunction", i32, [4 x i8], ptr, ptr, i8, [7 x i8] }>

@1 = private unnamed_addr constant %struct.ident_t { i32 0, i32 514, i32 0, i32 22, ptr @0 }, align 8

; Function Attrs: alwaysinline norecurse nounwind uwtable
define internal void @_ZNK8LightGBM12CrossEntropy12GetGradientsEPKdPfS3_.omp_outlined.72(ptr noalias noundef %0, ptr noalias noundef %1, ptr noundef %2, ptr noundef nonnull align 8 dereferenceable(8) %3, ptr noundef nonnull align 8 dereferenceable(8) %4, ptr noundef nonnull align 8 dereferenceable(8) %5) #16 {
  %7 = alloca ptr, align 8
  %8 = alloca ptr, align 8
  %9 = alloca ptr, align 8
  %10 = alloca ptr, align 8
  %11 = alloca ptr, align 8
  %12 = alloca ptr, align 8
  %13 = alloca i32, align 4
  %14 = alloca i32, align 4
  %15 = alloca i32, align 4
  %16 = alloca i32, align 4
  %17 = alloca i32, align 4
  %18 = alloca i32, align 4
  %19 = alloca i32, align 4
  %20 = alloca i32, align 4
  %21 = alloca i32, align 4
  %22 = alloca double, align 8
  %23 = alloca double, align 8
  store ptr %0, ptr %7, align 8, !tbaa !193
  store ptr %1, ptr %8, align 8, !tbaa !193
  store ptr %2, ptr %9, align 8, !tbaa !147
  store ptr %3, ptr %10, align 8, !tbaa !224
  store ptr %4, ptr %11, align 8, !tbaa !216
  store ptr %5, ptr %12, align 8, !tbaa !216
  %24 = load ptr, ptr %9, align 8, !tbaa !147
  %25 = load ptr, ptr %10, align 8, !tbaa !224
  %26 = load ptr, ptr %11, align 8, !tbaa !216
  %27 = load ptr, ptr %12, align 8, !tbaa !216
  call void @llvm.lifetime.start.p0(i64 4, ptr %13) #3
  call void @llvm.lifetime.start.p0(i64 4, ptr %14) #3
  %28 = getelementptr inbounds nuw %"class.LightGBM::CrossEntropy", ptr %24, i32 0, i32 1
  %29 = load i32, ptr %28, align 8, !tbaa !807
  store i32 %29, ptr %14, align 4, !tbaa !141
  call void @llvm.lifetime.start.p0(i64 4, ptr %15) #3
  %30 = load i32, ptr %14, align 4, !tbaa !141
  %31 = sub nsw i32 %30, 0
  %32 = sdiv i32 %31, 1
  %33 = sub nsw i32 %32, 1
  store i32 %33, ptr %15, align 4, !tbaa !141
  call void @llvm.lifetime.start.p0(i64 4, ptr %16) #3
  store i32 0, ptr %16, align 4, !tbaa !141
  call void @llvm.lifetime.end.p0(i64 4, ptr %16) #3
  %34 = load i32, ptr %14, align 4, !tbaa !141
  %35 = icmp slt i32 0, %34
  br i1 %35, label %36, label %179

36:                                               ; preds = %6
  call void @llvm.lifetime.start.p0(i64 4, ptr %17) #3
  store i32 0, ptr %17, align 4, !tbaa !141
  call void @llvm.lifetime.start.p0(i64 4, ptr %18) #3
  %37 = load i32, ptr %15, align 4, !tbaa !141
  store i32 %37, ptr %18, align 4, !tbaa !141
  call void @llvm.lifetime.start.p0(i64 4, ptr %19) #3
  store i32 1, ptr %19, align 4, !tbaa !141
  call void @llvm.lifetime.start.p0(i64 4, ptr %20) #3
  store i32 0, ptr %20, align 4, !tbaa !141
  call void @llvm.lifetime.start.p0(i64 4, ptr %21) #3
  %38 = load ptr, ptr %7, align 8
  %39 = load i32, ptr %38, align 4, !tbaa !141
  call void @__kmpc_for_static_init_4(ptr @1, i32 %39, i32 34, ptr %20, ptr %17, ptr %18, ptr %19, i32 1, i32 1)
  %40 = load i32, ptr %18, align 4, !tbaa !141
  %41 = load i32, ptr %15, align 4, !tbaa !141
  %42 = icmp sgt i32 %40, %41
  br i1 %42, label %43, label %45

43:                                               ; preds = %36
  %44 = load i32, ptr %15, align 4, !tbaa !141
  br label %47

45:                                               ; preds = %36
  %46 = load i32, ptr %18, align 4, !tbaa !141
  br label %47

47:                                               ; preds = %45, %43
  %48 = phi i32 [ %44, %43 ], [ %46, %45 ]
  store i32 %48, ptr %18, align 4, !tbaa !141
  %49 = load i32, ptr %17, align 4, !tbaa !141
  store i32 %49, ptr %13, align 4, !tbaa !141
  br label %50

50:                                               ; preds = %172, %47
  %51 = load i32, ptr %13, align 4, !tbaa !141
  %52 = load i32, ptr %18, align 4, !tbaa !141
  %53 = icmp sle i32 %51, %52
  br i1 %53, label %55, label %54

54:                                               ; preds = %50
  br label %175

55:                                               ; preds = %50
  %56 = load i32, ptr %13, align 4, !tbaa !141
  %57 = mul nsw i32 %56, 1
  %58 = add nsw i32 0, %57
  store i32 %58, ptr %21, align 4, !tbaa !141
  %59 = load ptr, ptr %25, align 8, !tbaa !191
  %60 = load i32, ptr %21, align 4, !tbaa !141
  %61 = sext i32 %60 to i64
  %62 = getelementptr inbounds double, ptr %59, i64 %61
  %63 = load double, ptr %62, align 8, !tbaa !194
  %64 = fcmp ogt double %63, -3.700000e+01
  br i1 %64, label %65, label %127

65:                                               ; preds = %55
  call void @llvm.lifetime.start.p0(i64 8, ptr %22) #3
  %66 = load ptr, ptr %25, align 8, !tbaa !191
  %67 = load i32, ptr %21, align 4, !tbaa !141
  %68 = sext i32 %67 to i64
  %69 = getelementptr inbounds double, ptr %66, i64 %68
  %70 = load double, ptr %69, align 8, !tbaa !194
  %71 = fneg double %70
  %72 = call double @exp(double noundef %71) #3, !tbaa !141
  store double %72, ptr %22, align 8, !tbaa !194
  %73 = getelementptr inbounds nuw %"class.LightGBM::CrossEntropy", ptr %24, i32 0, i32 3
  %74 = load ptr, ptr %73, align 8, !tbaa !808
  %75 = load i32, ptr %21, align 4, !tbaa !141
  %76 = sext i32 %75 to i64
  %77 = getelementptr inbounds float, ptr %74, i64 %76
  %78 = load float, ptr %77, align 4, !tbaa !210
  %79 = fsub float 1.000000e+00, %78
  %80 = fpext float %79 to double
  %81 = getelementptr inbounds nuw %"class.LightGBM::CrossEntropy", ptr %24, i32 0, i32 3
  %82 = load ptr, ptr %81, align 8, !tbaa !808
  %83 = load i32, ptr %21, align 4, !tbaa !141
  %84 = sext i32 %83 to i64
  %85 = getelementptr inbounds float, ptr %82, i64 %84
  %86 = load float, ptr %85, align 4, !tbaa !210
  %87 = fpext float %86 to double
  %88 = load double, ptr %22, align 8, !tbaa !194
  %89 = fneg double %87
  %90 = call double @llvm.fmuladd.f64(double %89, double %88, double %80)
  %91 = load double, ptr %22, align 8, !tbaa !194
  %92 = fadd double 1.000000e+00, %91
  %93 = fdiv double %90, %92
  %94 = getelementptr inbounds nuw %"class.LightGBM::CrossEntropy", ptr %24, i32 0, i32 4
  %95 = load ptr, ptr %94, align 8, !tbaa !809
  %96 = load i32, ptr %21, align 4, !tbaa !141
  %97 = sext i32 %96 to i64
  %98 = getelementptr inbounds float, ptr %95, i64 %97
  %99 = load float, ptr %98, align 4, !tbaa !210
  %100 = fpext float %99 to double
  %101 = fmul double %93, %100
  %102 = fptrunc double %101 to float
  %103 = load ptr, ptr %26, align 8, !tbaa !192
  %104 = load i32, ptr %21, align 4, !tbaa !141
  %105 = sext i32 %104 to i64
  %106 = getelementptr inbounds float, ptr %103, i64 %105
  store float %102, ptr %106, align 4, !tbaa !210
  %107 = load double, ptr %22, align 8, !tbaa !194
  %108 = load double, ptr %22, align 8, !tbaa !194
  %109 = fadd double 1.000000e+00, %108
  %110 = load double, ptr %22, align 8, !tbaa !194
  %111 = fadd double 1.000000e+00, %110
  %112 = fmul double %109, %111
  %113 = fdiv double %107, %112
  %114 = getelementptr inbounds nuw %"class.LightGBM::CrossEntropy", ptr %24, i32 0, i32 4
  %115 = load ptr, ptr %114, align 8, !tbaa !809
  %116 = load i32, ptr %21, align 4, !tbaa !141
  %117 = sext i32 %116 to i64
  %118 = getelementptr inbounds float, ptr %115, i64 %117
  %119 = load float, ptr %118, align 4, !tbaa !210
  %120 = fpext float %119 to double
  %121 = fmul double %113, %120
  %122 = fptrunc double %121 to float
  %123 = load ptr, ptr %27, align 8, !tbaa !192
  %124 = load i32, ptr %21, align 4, !tbaa !141
  %125 = sext i32 %124 to i64
  %126 = getelementptr inbounds float, ptr %123, i64 %125
  store float %122, ptr %126, align 4, !tbaa !210
  call void @llvm.lifetime.end.p0(i64 8, ptr %22) #3
  br label %170

127:                                              ; preds = %55
  call void @llvm.lifetime.start.p0(i64 8, ptr %23) #3
  %128 = load ptr, ptr %25, align 8, !tbaa !191
  %129 = load i32, ptr %21, align 4, !tbaa !141
  %130 = sext i32 %129 to i64
  %131 = getelementptr inbounds double, ptr %128, i64 %130
  %132 = load double, ptr %131, align 8, !tbaa !194
  %133 = call double @exp(double noundef %132) #3, !tbaa !141
  store double %133, ptr %23, align 8, !tbaa !194
  %134 = load double, ptr %23, align 8, !tbaa !194
  %135 = getelementptr inbounds nuw %"class.LightGBM::CrossEntropy", ptr %24, i32 0, i32 3
  %136 = load ptr, ptr %135, align 8, !tbaa !808
  %137 = load i32, ptr %21, align 4, !tbaa !141
  %138 = sext i32 %137 to i64
  %139 = getelementptr inbounds float, ptr %136, i64 %138
  %140 = load float, ptr %139, align 4, !tbaa !210
  %141 = fpext float %140 to double
  %142 = fsub double %134, %141
  %143 = getelementptr inbounds nuw %"class.LightGBM::CrossEntropy", ptr %24, i32 0, i32 4
  %144 = load ptr, ptr %143, align 8, !tbaa !809
  %145 = load i32, ptr %21, align 4, !tbaa !141
  %146 = sext i32 %145 to i64
  %147 = getelementptr inbounds float, ptr %144, i64 %146
  %148 = load float, ptr %147, align 4, !tbaa !210
  %149 = fpext float %148 to double
  %150 = fmul double %142, %149
  %151 = fptrunc double %150 to float
  %152 = load ptr, ptr %26, align 8, !tbaa !192
  %153 = load i32, ptr %21, align 4, !tbaa !141
  %154 = sext i32 %153 to i64
  %155 = getelementptr inbounds float, ptr %152, i64 %154
  store float %151, ptr %155, align 4, !tbaa !210
  %156 = load double, ptr %23, align 8, !tbaa !194
  %157 = getelementptr inbounds nuw %"class.LightGBM::CrossEntropy", ptr %24, i32 0, i32 4
  %158 = load ptr, ptr %157, align 8, !tbaa !809
  %159 = load i32, ptr %21, align 4, !tbaa !141
  %160 = sext i32 %159 to i64
  %161 = getelementptr inbounds float, ptr %158, i64 %160
  %162 = load float, ptr %161, align 4, !tbaa !210
  %163 = fpext float %162 to double
  %164 = fmul double %156, %163
  %165 = fptrunc double %164 to float
  %166 = load ptr, ptr %27, align 8, !tbaa !192
  %167 = load i32, ptr %21, align 4, !tbaa !141
  %168 = sext i32 %167 to i64
  %169 = getelementptr inbounds float, ptr %166, i64 %168
  store float %165, ptr %169, align 4, !tbaa !210
  call void @llvm.lifetime.end.p0(i64 8, ptr %23) #3
  br label %170

170:                                              ; preds = %127, %65
  br label %171

171:                                              ; preds = %170
  br label %172

172:                                              ; preds = %171
  %173 = load i32, ptr %13, align 4, !tbaa !141
  %174 = add nsw i32 %173, 1
  store i32 %174, ptr %13, align 4, !tbaa !141
  br label %50

175:                                              ; preds = %54
  br label %176

176:                                              ; preds = %175
  %177 = load ptr, ptr %7, align 8
  %178 = load i32, ptr %177, align 4, !tbaa !141
  call void @__kmpc_for_static_fini(ptr @1, i32 %178)
  call void @llvm.lifetime.end.p0(i64 4, ptr %21) #3
  call void @llvm.lifetime.end.p0(i64 4, ptr %20) #3
  call void @llvm.lifetime.end.p0(i64 4, ptr %19) #3
  call void @llvm.lifetime.end.p0(i64 4, ptr %18) #3
  call void @llvm.lifetime.end.p0(i64 4, ptr %17) #3
  br label %179

179:                                              ; preds = %176, %6
  call void @llvm.lifetime.end.p0(i64 4, ptr %15) #3
  call void @llvm.lifetime.end.p0(i64 4, ptr %14) #3
  call void @llvm.lifetime.end.p0(i64 4, ptr %13) #3
  ret void
}