; Function Attrs: alwaysinline norecurse nounwind uwtable
define internal void @_ZNK8LightGBM12CrossEntropy12GetGradientsEPKdPfS3_.omp_outlined.72(ptr noalias noundef readonly captures(none) %0, ptr noalias readnone captures(none) %1, ptr noundef readonly captures(none) %2, ptr noundef nonnull readonly align 8 captures(none) dereferenceable(8) %3, ptr noundef nonnull readonly align 8 captures(none) dereferenceable(8) %4, ptr noundef nonnull readonly align 8 captures(none) dereferenceable(8) %5) #14 {
  %7 = alloca i32, align 4
  %8 = alloca i32, align 4
  %9 = alloca i32, align 4
  %10 = alloca i32, align 4
  %11 = getelementptr inbounds nuw i8, ptr %2, i64 8
  %12 = load i32, ptr %11, align 8, !tbaa !515
  %13 = icmp sgt i32 %12, 0
  br i1 %13, label %14, label %72

14:                                               ; preds = %6
  %15 = add nsw i32 %12, -1
  call void @llvm.lifetime.start.p0(i64 4, ptr nonnull %7) #15
  store i32 0, ptr %7, align 4, !tbaa !127
  call void @llvm.lifetime.start.p0(i64 4, ptr nonnull %8) #15
  store i32 %15, ptr %8, align 4, !tbaa !127
  call void @llvm.lifetime.start.p0(i64 4, ptr nonnull %9) #15
  store i32 1, ptr %9, align 4, !tbaa !127
  call void @llvm.lifetime.start.p0(i64 4, ptr nonnull %10) #15
  store i32 0, ptr %10, align 4, !tbaa !127
  %16 = load i32, ptr %0, align 4, !tbaa !127
  call void @__kmpc_for_static_init_4(ptr nonnull @1, i32 %16, i32 34, ptr nonnull %10, ptr nonnull %7, ptr nonnull %8, ptr nonnull %9, i32 1, i32 1)
  %17 = load i32, ptr %8, align 4, !tbaa !127
  %18 = call i32 @llvm.smin.i32(i32 %17, i32 %15)
  store i32 %18, ptr %8, align 4, !tbaa !127
  %19 = load i32, ptr %7, align 4, !tbaa !127
  %.not35 = icmp sgt i32 %19, %18
  br i1 %.not35, label %._crit_edge, label %.lr.ph

.lr.ph:                                           ; preds = %14
  %20 = load ptr, ptr %3, align 8, !tbaa !152
  %21 = getelementptr inbounds nuw i8, ptr %2, i64 16
  %22 = getelementptr inbounds nuw i8, ptr %2, i64 24
  %23 = load ptr, ptr %4, align 8
  %24 = load ptr, ptr %5, align 8
  %25 = sext i32 %19 to i64
  br label %26

26:                                               ; preds = %.lr.ph, %66
  %indvars.iv = phi i64 [ %25, %.lr.ph ], [ %indvars.iv.next, %66 ]
  %27 = getelementptr inbounds double, ptr %20, i64 %indvars.iv
  %28 = load double, ptr %27, align 8, !tbaa !153
  %29 = fcmp ogt double %28, -3.700000e+01
  br i1 %29, label %30, label %52

30:                                               ; preds = %26
  %31 = fneg double %28
  %32 = call double @exp(double noundef %31) #15, !tbaa !127
  %33 = load ptr, ptr %21, align 8, !tbaa !516
  %34 = getelementptr inbounds float, ptr %33, i64 %indvars.iv
  %35 = load float, ptr %34, align 4, !tbaa !175
  %36 = fsub float 1.000000e+00, %35
  %37 = fpext float %36 to double
  %38 = fpext float %35 to double
  %39 = fneg double %38
  %40 = call double @llvm.fmuladd.f64(double %39, double %32, double %37)
  %41 = fadd double %32, 1.000000e+00
  %42 = fdiv double %40, %41
  %43 = load ptr, ptr %22, align 8, !tbaa !517
  %44 = getelementptr inbounds float, ptr %43, i64 %indvars.iv
  %45 = load float, ptr %44, align 4, !tbaa !175
  %46 = fpext float %45 to double
  %47 = fmul double %42, %46
  %48 = fptrunc double %47 to float
  %49 = getelementptr inbounds float, ptr %23, i64 %indvars.iv
  store float %48, ptr %49, align 4, !tbaa !175
  %50 = fmul double %41, %41
  %51 = fdiv double %32, %50
  br label %66

52:                                               ; preds = %26
  %53 = call double @exp(double noundef %28) #15, !tbaa !127
  %54 = load ptr, ptr %21, align 8, !tbaa !516
  %55 = getelementptr inbounds float, ptr %54, i64 %indvars.iv
  %56 = load float, ptr %55, align 4, !tbaa !175
  %57 = fpext float %56 to double
  %58 = fsub double %53, %57
  %59 = load ptr, ptr %22, align 8, !tbaa !517
  %60 = getelementptr inbounds float, ptr %59, i64 %indvars.iv
  %61 = load float, ptr %60, align 4, !tbaa !175
  %62 = fpext float %61 to double
  %63 = fmul double %58, %62
  %64 = fptrunc double %63 to float
  %65 = getelementptr inbounds float, ptr %23, i64 %indvars.iv
  store float %64, ptr %65, align 4, !tbaa !175
  br label %66

66:                                               ; preds = %52, %30
  %.sink40.in = phi ptr [ %60, %52 ], [ %44, %30 ]
  %.sink38 = phi double [ %53, %52 ], [ %51, %30 ]
  %.sink40 = load float, ptr %.sink40.in, align 4, !tbaa !175
  %67 = fpext float %.sink40 to double
  %68 = fmul double %.sink38, %67
  %.sink = fptrunc double %68 to float
  %69 = getelementptr inbounds float, ptr %24, i64 %indvars.iv
  store float %.sink, ptr %69, align 4, !tbaa !175
  %indvars.iv.next = add nsw i64 %indvars.iv, 1
  %70 = load i32, ptr %8, align 4, !tbaa !127
  %71 = sext i32 %70 to i64
  %.not.not = icmp slt i64 %indvars.iv, %71
  br i1 %.not.not, label %26, label %._crit_edge

._crit_edge:                                      ; preds = %66, %14
  call void @__kmpc_for_static_fini(ptr nonnull @1, i32 %16)
  call void @llvm.lifetime.end.p0(i64 4, ptr nonnull %10) #15
  call void @llvm.lifetime.end.p0(i64 4, ptr nonnull %9) #15
  call void @llvm.lifetime.end.p0(i64 4, ptr nonnull %8) #15
  call void @llvm.lifetime.end.p0(i64 4, ptr nonnull %7) #15
  br label %72

72:                                               ; preds = %._crit_edge, %6
  ret void
}